target datalayout = "e-m:e-p270:32:32-p271:32:32-p272:64:64-i64:64-i128:128-f80:128-n8:16:32:64-S128"
target triple = "x86_64-pc-linux-gnu"

%struct.EVP_ARIA_KEY = type { %struct.aria_key_st }
%struct.aria_key_st = type { [17 x %union.ARIA_u128], i32 }
%union.ARIA_u128 = type { [4 x i32] }
%struct.evp_cipher_ctx_st = type { ptr, ptr, i32, i32, [16 x i8], [16 x i8], [32 x i8], i32, ptr, i32, i32, i64, ptr, i32, i32, [32 x i8], i64, ptr, ptr }

; Function Attrs: nounwind uwtable
define internal void @aria_cfb1_encrypt(ptr noundef %0, ptr noundef %1, i64 noundef %2, ptr noundef %3, ptr noundef %4, ptr noundef %5, i32 noundef %6) #0 {
  %8 = alloca ptr, align 8
  %9 = alloca ptr, align 8
  %10 = alloca i64, align 8
  %11 = alloca ptr, align 8
  %12 = alloca ptr, align 8
  %13 = alloca ptr, align 8
  %14 = alloca i32, align 4
  store ptr %0, ptr %8, align 8, !tbaa !8
  store ptr %1, ptr %9, align 8, !tbaa !8
  store i64 %2, ptr %10, align 8, !tbaa !12
  store ptr %3, ptr %11, align 8, !tbaa !16
  store ptr %4, ptr %12, align 8, !tbaa !8
  store ptr %5, ptr %13, align 8, !tbaa !19
  store i32 %6, ptr %14, align 4, !tbaa !10
  %15 = load ptr, ptr %8, align 8, !tbaa !8
  %16 = load ptr, ptr %9, align 8, !tbaa !8
  %17 = load i64, ptr %10, align 8, !tbaa !12
  %18 = load ptr, ptr %11, align 8, !tbaa !16
  %19 = load ptr, ptr %12, align 8, !tbaa !8
  %20 = load ptr, ptr %13, align 8, !tbaa !19
  %21 = load i32, ptr %14, align 4, !tbaa !10
  call void @CRYPTO_cfb128_1_encrypt(ptr noundef %15, ptr noundef %16, i64 noundef %17, ptr noundef %18, ptr noundef %19, ptr noundef %20, i32 noundef %21, ptr noundef @ossl_aria_encrypt)
  ret void
}

; Function Attrs: nounwind uwtable
define internal i32 @aria_256_cfb1_cipher(ptr noundef %0, ptr noundef %1, ptr noundef %2, i64 noundef %3) #0 {
  %5 = alloca ptr, align 8
  %6 = alloca ptr, align 8
  %7 = alloca ptr, align 8
  %8 = alloca i64, align 8
  %9 = alloca i64, align 8
  %10 = alloca i32, align 4
  store ptr %0, ptr %5, align 8, !tbaa !3
  store ptr %1, ptr %6, align 8, !tbaa !8
  store ptr %2, ptr %7, align 8, !tbaa !8
  store i64 %3, ptr %8, align 8, !tbaa !12
  call void @llvm.lifetime.start.p0(i64 8, ptr %9) #4
  store i64 1073741824, ptr %9, align 8, !tbaa !12
  %11 = load i64, ptr %9, align 8, !tbaa !12
  %12 = lshr i64 %11, 3
  store i64 %12, ptr %9, align 8, !tbaa !12
  %13 = load i64, ptr %8, align 8, !tbaa !12
  %14 = load i64, ptr %9, align 8, !tbaa !12
  %15 = icmp ult i64 %13, %14
  br i1 %15, label %16, label %18

16:                                               ; preds = %4
  %17 = load i64, ptr %8, align 8, !tbaa !12
  store i64 %17, ptr %9, align 8, !tbaa !12
  br label %18

18:                                               ; preds = %16, %4
  br label %19

19:                                               ; preds = %68, %18
  %20 = load i64, ptr %8, align 8, !tbaa !12
  %21 = icmp ne i64 %20, 0
  br i1 %21, label %22, label %26

22:                                               ; preds = %19
  %23 = load i64, ptr %8, align 8, !tbaa !12
  %24 = load i64, ptr %9, align 8, !tbaa !12
  %25 = icmp uge i64 %23, %24
  br label %26

26:                                               ; preds = %22, %19
  %27 = phi i1 [ false, %19 ], [ %25, %22 ]
  br i1 %27, label %28, label %69

28:                                               ; preds = %26
  call void @llvm.lifetime.start.p0(i64 4, ptr %10) #4
  %29 = load ptr, ptr %5, align 8, !tbaa !3
  %30 = call i32 @EVP_CIPHER_CTX_get_num(ptr noundef %29)
  store i32 %30, ptr %10, align 4, !tbaa !10
  %31 = load ptr, ptr %7, align 8, !tbaa !8
  %32 = load ptr, ptr %6, align 8, !tbaa !8
  %33 = load ptr, ptr %5, align 8, !tbaa !3
  %34 = call i32 @EVP_CIPHER_CTX_test_flags(ptr noundef %33, i32 noundef 8192)
  %35 = icmp ne i32 %34, 0
  br i1 %35, label %39, label %36

36:                                               ; preds = %28
  %37 = load i64, ptr %9, align 8, !tbaa !12
  %38 = mul i64 %37, 8
  br label %41

39:                                               ; preds = %28
  %40 = load i64, ptr %9, align 8, !tbaa !12
  br label %41

41:                                               ; preds = %39, %36
  %42 = phi i64 [ %38, %36 ], [ %40, %39 ]
  %43 = load ptr, ptr %5, align 8, !tbaa !3
  %44 = call ptr @EVP_CIPHER_CTX_get_cipher_data(ptr noundef %43)
  %45 = getelementptr inbounds nuw %struct.EVP_ARIA_KEY, ptr %44, i32 0, i32 0
  %46 = load ptr, ptr %5, align 8, !tbaa !3
  %47 = getelementptr inbounds nuw %struct.evp_cipher_ctx_st, ptr %46, i32 0, i32 5
  %48 = getelementptr inbounds [16 x i8], ptr %47, i64 0, i64 0
  %49 = load ptr, ptr %5, align 8, !tbaa !3
  %50 = call i32 @EVP_CIPHER_CTX_is_encrypting(ptr noundef %49)
  call void @aria_cfb1_encrypt(ptr noundef %31, ptr noundef %32, i64 noundef %42, ptr noundef %45, ptr noundef %48, ptr noundef %10, i32 noundef %50)
  %51 = load ptr, ptr %5, align 8, !tbaa !3
  %52 = load i32, ptr %10, align 4, !tbaa !10
  %53 = call i32 @EVP_CIPHER_CTX_set_num(ptr noundef %51, i32 noundef %52)
  %54 = load i64, ptr %9, align 8, !tbaa !12
  %55 = load i64, ptr %8, align 8, !tbaa !12
  %56 = sub i64 %55, %54
  store i64 %56, ptr %8, align 8, !tbaa !12
  %57 = load i64, ptr %9, align 8, !tbaa !12
  %58 = load ptr, ptr %7, align 8, !tbaa !8
  %59 = getelementptr inbounds nuw i8, ptr %58, i64 %57
  store ptr %59, ptr %7, align 8, !tbaa !8
  %60 = load i64, ptr %9, align 8, !tbaa !12
  %61 = load ptr, ptr %6, align 8, !tbaa !8
  %62 = getelementptr inbounds nuw i8, ptr %61, i64 %60
  store ptr %62, ptr %6, align 8, !tbaa !8
  %63 = load i64, ptr %8, align 8, !tbaa !12
  %64 = load i64, ptr %9, align 8, !tbaa !12
  %65 = icmp ult i64 %63, %64
  br i1 %65, label %66, label %68

66:                                               ; preds = %41
  %67 = load i64, ptr %8, align 8, !tbaa !12
  store i64 %67, ptr %9, align 8, !tbaa !12
  br label %68

68:                                               ; preds = %66, %41
  call void @llvm.lifetime.end.p0(i64 4, ptr %10) #4
  br label %19, !llvm.loop !37

69:                                               ; preds = %26
  call void @llvm.lifetime.end.p0(i64 8, ptr %9) #4
  ret i32 1
}